; ModuleID = '12/1040.c'
source_filename = "12/1040.c"
target datalayout = "e-m:e-p270:32:32-p271:32:32-p272:64:64-i64:64-f80:128-n8:16:32:64-S128"
target triple = "x86_64-pc-linux-gnu"

@.str = private unnamed_addr constant [3 x i8] c"%d\00", align 1
@.str.1 = private unnamed_addr constant [4 x i8] c"%d\0A\00", align 1

; Function Attrs: noinline nounwind uwtable
define dso_local i32 @main() #0 {
  %1 = alloca i32, align 4
  %2 = alloca i32, align 4
  %3 = alloca i32, align 4
  %4 = alloca i32, align 4
  %5 = alloca i32, align 4
  %6 = alloca i32, align 4
  %7 = alloca [20 x i32], align 16
  store i32 0, i32* %1, align 4
  store i32 0, i32* %5, align 4
  br label %8

8:                                                ; preds = %86, %0
  store i32 0, i32* %2, align 4
  br label %9

9:                                                ; preds = %77, %8
  %10 = load i32, i32* %2, align 4
  %11 = icmp slt i32 %10, 16
  br i1 %11, label %12, label %80

12:                                               ; preds = %9
  %13 = load i32, i32* %2, align 4
  %14 = sext i32 %13 to i64
  %15 = getelementptr inbounds [20 x i32], [20 x i32]* %7, i64 0, i64 %14
  %16 = call i32 (i8*, ...) @__isoc99_scanf(i8* getelementptr inbounds ([3 x i8], [3 x i8]* @.str, i64 0, i64 0), i32* %15)
  %17 = getelementptr inbounds [20 x i32], [20 x i32]* %7, i64 0, i64 0
  %18 = load i32, i32* %17, align 16
  %19 = icmp eq i32 %18, -1
  br i1 %19, label %20, label %21

20:                                               ; preds = %12
  br label %80

21:                                               ; preds = %12
  store i32 0, i32* %6, align 4
  %22 = load i32, i32* %2, align 4
  %23 = sext i32 %22 to i64
  %24 = getelementptr inbounds [20 x i32], [20 x i32]* %7, i64 0, i64 %23
  %25 = load i32, i32* %24, align 4
  %26 = icmp eq i32 %25, 0
  br i1 %26, label %27, label %76

27:                                               ; preds = %21
  store i32 0, i32* %3, align 4
  br label %28

28:                                               ; preds = %70, %27
  %29 = load i32, i32* %3, align 4
  %30 = load i32, i32* %2, align 4
  %31 = sub nsw i32 %30, 1
  %32 = icmp slt i32 %29, %31
  br i1 %32, label %33, label %73

33:                                               ; preds = %28
  %34 = load i32, i32* %3, align 4
  %35 = add nsw i32 %34, 1
  store i32 %35, i32* %5, align 4
  br label %36

36:                                               ; preds = %66, %33
  %37 = load i32, i32* %5, align 4
  %38 = load i32, i32* %2, align 4
  %39 = icmp slt i32 %37, %38
  br i1 %39, label %40, label %69

40:                                               ; preds = %36
  %41 = load i32, i32* %5, align 4
  %42 = sext i32 %41 to i64
  %43 = getelementptr inbounds [20 x i32], [20 x i32]* %7, i64 0, i64 %42
  %44 = load i32, i32* %43, align 4
  %45 = load i32, i32* %3, align 4
  %46 = sext i32 %45 to i64
  %47 = getelementptr inbounds [20 x i32], [20 x i32]* %7, i64 0, i64 %46
  %48 = load i32, i32* %47, align 4
  %49 = mul nsw i32 %48, 2
  %50 = icmp eq i32 %44, %49
  br i1 %50, label %62, label %51

51:                                               ; preds = %40
  %52 = load i32, i32* %3, align 4
  %53 = sext i32 %52 to i64
  %54 = getelementptr inbounds [20 x i32], [20 x i32]* %7, i64 0, i64 %53
  %55 = load i32, i32* %54, align 4
  %56 = load i32, i32* %5, align 4
  %57 = sext i32 %56 to i64
  %58 = getelementptr inbounds [20 x i32], [20 x i32]* %7, i64 0, i64 %57
  %59 = load i32, i32* %58, align 4
  %60 = mul nsw i32 %59, 2
  %61 = icmp eq i32 %55, %60
  br i1 %61, label %62, label %65

62:                                               ; preds = %51, %40
  %63 = load i32, i32* %6, align 4
  %64 = add nsw i32 %63, 1
  store i32 %64, i32* %6, align 4
  br label %65

65:                                               ; preds = %62, %51
  br label %66

66:                                               ; preds = %65
  %67 = load i32, i32* %5, align 4
  %68 = add nsw i32 %67, 1
  store i32 %68, i32* %5, align 4
  br label %36

69:                                               ; preds = %36
  br label %70

70:                                               ; preds = %69
  %71 = load i32, i32* %3, align 4
  %72 = add nsw i32 %71, 1
  store i32 %72, i32* %3, align 4
  br label %28

73:                                               ; preds = %28
  %74 = load i32, i32* %6, align 4
  %75 = call i32 (i8*, ...) @printf(i8* getelementptr inbounds ([4 x i8], [4 x i8]* @.str.1, i64 0, i64 0), i32 %74)
  br label %80

76:                                               ; preds = %21
  br label %77

77:                                               ; preds = %76
  %78 = load i32, i32* %2, align 4
  %79 = add nsw i32 %78, 1
  store i32 %79, i32* %2, align 4
  br label %9

80:                                               ; preds = %73, %20, %9
  %81 = getelementptr inbounds [20 x i32], [20 x i32]* %7, i64 0, i64 0
  %82 = load i32, i32* %81, align 16
  %83 = icmp eq i32 %82, -1
  br i1 %83, label %84, label %85

84:                                               ; preds = %80
  br label %89

85:                                               ; preds = %80
  br label %86

86:                                               ; preds = %85
  %87 = load i32, i32* %5, align 4
  %88 = add nsw i32 %87, 1
  store i32 %88, i32* %5, align 4
  br label %8

89:                                               ; preds = %84
  ret i32 0
}

declare dso_local i32 @__isoc99_scanf(i8*, ...) #1

declare dso_local i32 @printf(i8*, ...) #1


!llvm.module.flags = !{!0}
!llvm.ident = !{!1}

!0 = !{i32 1, !"wchar_size", i32 4}
!1 = !{!"clang version 10.0.0-4ubuntu1 "}
